; Function Attrs: mustprogress nounwind uwtable
define internal fastcc void @_ZN6hermes12_GLOBAL__N_15GenJS13visitStmtListERN4llvh12simple_ilistINS_6ESTree4NodeEJEEEPS5_(ptr noundef nonnull align 8 captures(none) dereferenceable(16) %this, ptr noundef nonnull readonly align 8 dereferenceable(16) %list) unnamed_addr #0 align 2 {
entry:
  %__begin2.sroa.0.0.in3 = getelementptr inbounds nuw i8, ptr %list, i64 8
  %__begin2.sroa.0.04 = load ptr, ptr %__begin2.sroa.0.0.in3, align 8
  %cmp.i.not5 = icmp eq ptr %__begin2.sroa.0.04, %list
  br i1 %cmp.i.not5, label %for.end, label %for.body.lr.ph

for.body.lr.ph:                                   ; preds = %entry
  %pretty_.i = getelementptr inbounds nuw i8, ptr %this, i64 8
  %indent_.i = getelementptr inbounds nuw i8, ptr %this, i64 12
  br label %for.body

for.body:                                         ; preds = %for.body.lr.ph, %_ZN6hermes12_GLOBAL__N_15GenJS17visitStmtInABlockEPNS_6ESTree4NodeES4_.exit
  %__begin2.sroa.0.07 = phi ptr [ %__begin2.sroa.0.04, %for.body.lr.ph ], [ %__begin2.sroa.0.0, %_ZN6hermes12_GLOBAL__N_15GenJS17visitStmtInABlockEPNS_6ESTree4NodeES4_.exit ]
  %i.06 = phi i32 [ 0, %for.body.lr.ph ], [ %inc, %_ZN6hermes12_GLOBAL__N_15GenJS17visitStmtInABlockEPNS_6ESTree4NodeES4_.exit ]
  %inc = add nuw nsw i32 %i.06, 1
  %tobool.not = icmp eq i32 %i.06, 0
  br i1 %tobool.not, label %if.end, label %if.then

if.then:                                          ; preds = %for.body
  %0 = load i8, ptr %pretty_.i, align 8
  %tobool.i = trunc i8 %0 to i1
  br i1 %tobool.i, label %if.then.i, label %if.end

if.then.i:                                        ; preds = %if.then
  %1 = load ptr, ptr %this, align 8
  %call.i = tail call noundef nonnull align 8 dereferenceable(36) ptr @_ZN4llvh11raw_ostream5writeEh(ptr noundef nonnull align 8 dereferenceable(36) %1, i8 noundef zeroext 10) #12
  %2 = load i32, ptr %indent_.i, align 4
  %call2.i = tail call noundef nonnull align 8 dereferenceable(36) ptr @_ZN4llvh11raw_ostream6indentEj(ptr noundef nonnull align 8 dereferenceable(36) %call.i, i32 noundef %2) #12
  br label %if.end

if.end:                                           ; preds = %if.then.i, %if.then, %for.body
  tail call fastcc void @_ZN6hermes6ESTree24RecursiveVisitorDispatchINS_12_GLOBAL__N_15GenJSELb1EE5visitERS3_PNS0_4NodeES7_(ptr noundef nonnull align 8 dereferenceable(16) %this, ptr noundef nonnull %__begin2.sroa.0.07)
  %call.i2 = tail call fastcc noundef zeroext i1 @_ZN6hermes12_GLOBAL__N_15GenJS13endsWithBlockEPNS_6ESTree4NodeE(ptr noundef nonnull %__begin2.sroa.0.07)
  br i1 %call.i2, label %_ZN6hermes12_GLOBAL__N_15GenJS17visitStmtInABlockEPNS_6ESTree4NodeES4_.exit, label %if.then.i3

if.then.i3:                                       ; preds = %if.end
  %3 = load ptr, ptr %this, align 8
  %OutBufEnd.i5.i = getelementptr inbounds nuw i8, ptr %3, i64 16
  %4 = load ptr, ptr %OutBufEnd.i5.i, align 8
  %OutBufCur.i6.i = getelementptr inbounds nuw i8, ptr %3, i64 24
  %5 = load ptr, ptr %OutBufCur.i6.i, align 8
  %cmp.i.i = icmp eq ptr %4, %5
  br i1 %cmp.i.i, label %if.then.i.i, label %if.then4.i.i

if.then.i.i:                                      ; preds = %if.then.i3
  %call3.i.i = tail call noundef nonnull align 8 dereferenceable(36) ptr @_ZN4llvh11raw_ostream5writeEPKcm(ptr noundef nonnull align 8 dereferenceable(36) %3, ptr noundef nonnull @.str.236, i64 noundef 1) #12
  br label %_ZN6hermes12_GLOBAL__N_15GenJS17visitStmtInABlockEPNS_6ESTree4NodeES4_.exit

if.then4.i.i:                                     ; preds = %if.then.i3
  store i8 59, ptr %5, align 1
  %6 = load ptr, ptr %OutBufCur.i6.i, align 8
  %add.ptr.i.i = getelementptr inbounds nuw i8, ptr %6, i64 1
  store ptr %add.ptr.i.i, ptr %OutBufCur.i6.i, align 8
  br label %_ZN6hermes12_GLOBAL__N_15GenJS17visitStmtInABlockEPNS_6ESTree4NodeES4_.exit

_ZN6hermes12_GLOBAL__N_15GenJS17visitStmtInABlockEPNS_6ESTree4NodeES4_.exit: ; preds = %if.then4.i.i, %if.then.i.i, %if.end
  %__begin2.sroa.0.0.in = getelementptr inbounds nuw i8, ptr %__begin2.sroa.0.07, i64 8
  %__begin2.sroa.0.0 = load ptr, ptr %__begin2.sroa.0.0.in, align 8
  %cmp.i.not = icmp eq ptr %__begin2.sroa.0.0, %list
  br i1 %cmp.i.not, label %for.end, label %for.body

for.end:                                          ; preds = %_ZN6hermes12_GLOBAL__N_15GenJS17visitStmtInABlockEPNS_6ESTree4NodeES4_.exit, %entry
  ret void
}